; Function Attrs: mustprogress nofree norecurse nosync nounwind memory(argmem: readwrite) uwtable
define dso_local void @_ZNK4pbrt17sRGBColorEncoding8ToLinearEN4pstd4spanIKhEENS2_IfEE(ptr noundef nonnull readnone align 1 captures(none) dereferenceable(1) %0, ptr readonly captures(none) %1, i64 %2, ptr writeonly captures(none) %3, i64 %4) local_unnamed_addr #5 align 2 {
  %.not = icmp eq i64 %2, 0
  br i1 %.not, label %._crit_edge, label %.lr.ph

._crit_edge:                                      ; preds = %.lr.ph, %5
  ret void

.lr.ph:                                           ; preds = %5, %.lr.ph
  %.06 = phi i64 [ %12, %.lr.ph ], [ 0, %5 ]
  %6 = getelementptr inbounds nuw i8, ptr %1, i64 %.06
  %7 = load i8, ptr %6, align 1, !tbaa !16
  %8 = zext i8 %7 to i64
  %9 = getelementptr inbounds nuw [256 x float], ptr @_ZN4pbrt15SRGBToLinearLUTE, i64 0, i64 %8
  %10 = load float, ptr %9, align 4, !tbaa !26
  %11 = getelementptr inbounds nuw float, ptr %3, i64 %.06
  store float %10, ptr %11, align 4, !tbaa !26
  %12 = add nuw i64 %.06, 1
  %exitcond.not = icmp eq i64 %12, %2
  br i1 %exitcond.not, label %._crit_edge, label %.lr.ph, !llvm.loop !46
}